target datalayout = "e-m:e-p270:32:32-p271:32:32-p272:64:64-i64:64-i128:128-f80:128-n8:16:32:64-S128"
target triple = "x86_64-pc-linux-gnu"

%"class.std::__cxx11::basic_string" = type { %"struct.std::__cxx11::basic_string<char>::_Alloc_hider", i64, %union.anon }
%"struct.std::__cxx11::basic_string<char>::_Alloc_hider" = type { ptr }
%union.anon = type { i64, [8 x i8] }
%"struct.std::_Vector_base" = type { %"struct.std::_Vector_base<jsonnet::internal::FodderElement, std::allocator<jsonnet::internal::FodderElement>>::_Vector_impl" }
%"struct.std::_Vector_base<jsonnet::internal::FodderElement, std::allocator<jsonnet::internal::FodderElement>>::_Vector_impl" = type { %"struct.std::_Vector_base<jsonnet::internal::FodderElement, std::allocator<jsonnet::internal::FodderElement>>::_Vector_impl_data" }
%"struct.std::_Vector_base<jsonnet::internal::FodderElement, std::allocator<jsonnet::internal::FodderElement>>::_Vector_impl_data" = type { ptr, ptr, ptr }
%"class.std::vector" = type { %"struct.std::_Vector_base" }
%"struct.jsonnet::internal::LocationRange" = type { %"class.std::__cxx11::basic_string", %"struct.jsonnet::internal::Location", %"struct.jsonnet::internal::Location" }
%"struct.jsonnet::internal::Location" = type { i64, i64 }
%"struct.jsonnet::internal::AST" = type { ptr, %"struct.jsonnet::internal::LocationRange", i32, %"class.std::vector", %"class.std::vector.40" }
%"class.std::vector.40" = type { %"struct.std::_Vector_base.41" }
%"struct.std::_Vector_base.41" = type { %"struct.std::_Vector_base<const jsonnet::internal::Identifier *, std::allocator<const jsonnet::internal::Identifier *>>::_Vector_impl" }
%"struct.std::_Vector_base<const jsonnet::internal::Identifier *, std::allocator<const jsonnet::internal::Identifier *>>::_Vector_impl" = type { %"struct.std::_Vector_base<const jsonnet::internal::Identifier *, std::allocator<const jsonnet::internal::Identifier *>>::_Vector_impl_data" }
%"struct.std::_Vector_base<const jsonnet::internal::Identifier *, std::allocator<const jsonnet::internal::Identifier *>>::_Vector_impl_data" = type { ptr, ptr, ptr }
%"struct.jsonnet::internal::Conditional" = type { %"struct.jsonnet::internal::AST", ptr, %"class.std::vector", ptr, %"class.std::vector", ptr }

; Function Attrs: mustprogress uwtable
define void @_ZN7jsonnet8internal12CompilerPass5visitEPNS0_11ConditionalE(ptr noundef nonnull align 8 dereferenceable(16) %0, ptr noundef %1) unnamed_addr #4 align 2 {
  %3 = alloca ptr, align 8
  %4 = alloca ptr, align 8
  store ptr %0, ptr %3, align 8, !tbaa !21
  store ptr %1, ptr %4, align 8, !tbaa !122
  %5 = load ptr, ptr %3, align 8
  %6 = load ptr, ptr %4, align 8, !tbaa !122
  %7 = getelementptr inbounds nuw %"struct.jsonnet::internal::Conditional", ptr %6, i32 0, i32 1
  %8 = load ptr, ptr %5, align 8, !tbaa !27
  %9 = getelementptr inbounds ptr, ptr %8, i64 6
  %10 = load ptr, ptr %9, align 8
  call void %10(ptr noundef nonnull align 8 dereferenceable(16) %5, ptr noundef nonnull align 8 dereferenceable(8) %7)
  %11 = load ptr, ptr %4, align 8, !tbaa !122
  %12 = getelementptr inbounds nuw %"struct.jsonnet::internal::Conditional", ptr %11, i32 0, i32 2
  %13 = load ptr, ptr %5, align 8, !tbaa !27
  %14 = getelementptr inbounds ptr, ptr %13, i64 1
  %15 = load ptr, ptr %14, align 8
  call void %15(ptr noundef nonnull align 8 dereferenceable(16) %5, ptr noundef nonnull align 8 dereferenceable(24) %12)
  %16 = load ptr, ptr %4, align 8, !tbaa !122
  %17 = getelementptr inbounds nuw %"struct.jsonnet::internal::Conditional", ptr %16, i32 0, i32 5
  %18 = load ptr, ptr %17, align 8, !tbaa !124
  %19 = icmp ne ptr %18, null
  br i1 %19, label %20, label %36

20:                                               ; preds = %2
  %21 = load ptr, ptr %4, align 8, !tbaa !122
  %22 = getelementptr inbounds nuw %"struct.jsonnet::internal::Conditional", ptr %21, i32 0, i32 3
  %23 = load ptr, ptr %5, align 8, !tbaa !27
  %24 = getelementptr inbounds ptr, ptr %23, i64 6
  %25 = load ptr, ptr %24, align 8
  call void %25(ptr noundef nonnull align 8 dereferenceable(16) %5, ptr noundef nonnull align 8 dereferenceable(8) %22)
  %26 = load ptr, ptr %4, align 8, !tbaa !122
  %27 = getelementptr inbounds nuw %"struct.jsonnet::internal::Conditional", ptr %26, i32 0, i32 4
  %28 = load ptr, ptr %5, align 8, !tbaa !27
  %29 = getelementptr inbounds ptr, ptr %28, i64 1
  %30 = load ptr, ptr %29, align 8
  call void %30(ptr noundef nonnull align 8 dereferenceable(16) %5, ptr noundef nonnull align 8 dereferenceable(24) %27)
  %31 = load ptr, ptr %4, align 8, !tbaa !122
  %32 = getelementptr inbounds nuw %"struct.jsonnet::internal::Conditional", ptr %31, i32 0, i32 5
  %33 = load ptr, ptr %5, align 8, !tbaa !27
  %34 = getelementptr inbounds ptr, ptr %33, i64 6
  %35 = load ptr, ptr %34, align 8
  call void %35(ptr noundef nonnull align 8 dereferenceable(16) %5, ptr noundef nonnull align 8 dereferenceable(8) %32)
  br label %42

36:                                               ; preds = %2
  %37 = load ptr, ptr %4, align 8, !tbaa !122
  %38 = getelementptr inbounds nuw %"struct.jsonnet::internal::Conditional", ptr %37, i32 0, i32 3
  %39 = load ptr, ptr %5, align 8, !tbaa !27
  %40 = getelementptr inbounds ptr, ptr %39, i64 6
  %41 = load ptr, ptr %40, align 8
  call void %41(ptr noundef nonnull align 8 dereferenceable(16) %5, ptr noundef nonnull align 8 dereferenceable(8) %38)
  br label %42

42:                                               ; preds = %36, %20
  ret void
}