; Function Attrs: mustprogress uwtable
define void @_ZN7jsonnet8internal12CompilerPass5visitEPNS0_11ConditionalE(ptr noundef nonnull align 8 dereferenceable(16) %0, ptr noundef %1) unnamed_addr #4 align 2 {
  %3 = getelementptr inbounds nuw i8, ptr %1, i64 128
  %4 = load ptr, ptr %0, align 8, !tbaa !17
  %5 = getelementptr inbounds nuw i8, ptr %4, i64 48
  %6 = load ptr, ptr %5, align 8
  tail call void %6(ptr noundef nonnull align 8 dereferenceable(16) %0, ptr noundef nonnull align 8 dereferenceable(8) %3)
  %7 = getelementptr inbounds nuw i8, ptr %1, i64 136
  %8 = load ptr, ptr %0, align 8, !tbaa !17
  %9 = getelementptr inbounds nuw i8, ptr %8, i64 8
  %10 = load ptr, ptr %9, align 8
  tail call void %10(ptr noundef nonnull align 8 dereferenceable(16) %0, ptr noundef nonnull align 8 dereferenceable(24) %7)
  %11 = getelementptr inbounds nuw i8, ptr %1, i64 192
  %12 = load ptr, ptr %11, align 8, !tbaa !69
  %.not = icmp eq ptr %12, null
  %13 = getelementptr inbounds nuw i8, ptr %1, i64 160
  %14 = load ptr, ptr %0, align 8, !tbaa !17
  %15 = getelementptr inbounds nuw i8, ptr %14, i64 48
  %16 = load ptr, ptr %15, align 8
  tail call void %16(ptr noundef nonnull align 8 dereferenceable(16) %0, ptr noundef nonnull align 8 dereferenceable(8) %13)
  br i1 %.not, label %25, label %17

17:                                               ; preds = %2
  %18 = getelementptr inbounds nuw i8, ptr %1, i64 168
  %19 = load ptr, ptr %0, align 8, !tbaa !17
  %20 = getelementptr inbounds nuw i8, ptr %19, i64 8
  %21 = load ptr, ptr %20, align 8
  tail call void %21(ptr noundef nonnull align 8 dereferenceable(16) %0, ptr noundef nonnull align 8 dereferenceable(24) %18)
  %22 = load ptr, ptr %0, align 8, !tbaa !17
  %23 = getelementptr inbounds nuw i8, ptr %22, i64 48
  %24 = load ptr, ptr %23, align 8
  tail call void %24(ptr noundef nonnull align 8 dereferenceable(16) %0, ptr noundef nonnull align 8 dereferenceable(8) %11)
  br label %25

25:                                               ; preds = %2, %17
  ret void
}